target datalayout = "e-m:e-p270:32:32-p271:32:32-p272:64:64-i64:64-i128:128-f80:128-n8:16:32:64-S128"
target triple = "x86_64-pc-linux-gnu"

%struct.stat = type { i64, i64, i64, i32, i32, i32, i32, i64, i64, i64, i64, %struct.timespec, %struct.timespec, %struct.timespec, [3 x i64] }
%struct.timespec = type { i64, i64 }

@.str.373 = private unnamed_addr constant [46 x i8] c"File '%s' does not exist or access is denied.\00", align 1
@.str.374 = private unnamed_addr constant [19 x i8] c"No filename given.\00", align 1

; Function Attrs: null_pointer_is_valid sspstrong uwtable
define internal zeroext i1 @rsakeys_uat_fld_fileopen_chk_cb(ptr noundef %0, ptr noundef %1, i32 noundef %2, ptr noundef %3, ptr noundef %4, ptr noundef %5) #0 {
  %7 = alloca i1, align 1
  %8 = alloca ptr, align 8
  %9 = alloca ptr, align 8
  %10 = alloca i32, align 4
  %11 = alloca ptr, align 8
  %12 = alloca ptr, align 8
  %13 = alloca ptr, align 8
  %14 = alloca %struct.stat, align 8
  %15 = alloca i32, align 4
  store ptr %0, ptr %8, align 8
  store ptr %1, ptr %9, align 8
  store i32 %2, ptr %10, align 4
  store ptr %3, ptr %11, align 8
  store ptr %4, ptr %12, align 8
  store ptr %5, ptr %13, align 8
  %16 = load ptr, ptr %9, align 8
  %17 = icmp ne ptr %16, null
  br i1 %17, label %18, label %35

18:                                               ; preds = %6
  %19 = load ptr, ptr %9, align 8
  %20 = load i8, ptr %19, align 1
  %21 = sext i8 %20 to i32
  %22 = icmp ne i32 %21, 0
  br i1 %22, label %23, label %35

23:                                               ; preds = %18
  call void @llvm.lifetime.start.p0(i64 144, ptr %14) #17
  %24 = load ptr, ptr %9, align 8
  %25 = call i32 @stat(ptr noundef %24, ptr noundef %14) #17
  %26 = icmp ne i32 %25, 0
  br i1 %26, label %27, label %31

27:                                               ; preds = %23
  %28 = load ptr, ptr %9, align 8
  %29 = call noalias ptr (ptr, ptr, ...) @wmem_strdup_printf(ptr noundef null, ptr noundef @.str.373, ptr noundef %28)
  %30 = load ptr, ptr %13, align 8
  store ptr %29, ptr %30, align 8
  store i1 false, ptr %7, align 1
  store i32 1, ptr %15, align 4
  br label %32

31:                                               ; preds = %23
  store i32 0, ptr %15, align 4
  br label %32

32:                                               ; preds = %31, %27
  call void @llvm.lifetime.end.p0(i64 144, ptr %14) #17
  %33 = load i32, ptr %15, align 4
  switch i32 %33, label %42 [
    i32 0, label %34
    i32 1, label %40
  ]

34:                                               ; preds = %32
  br label %38

35:                                               ; preds = %18, %6
  %36 = call noalias ptr @g_strdup(ptr noundef @.str.374)
  %37 = load ptr, ptr %13, align 8
  store ptr %36, ptr %37, align 8
  store i1 false, ptr %7, align 1
  br label %40

38:                                               ; preds = %34
  %39 = load ptr, ptr %13, align 8
  store ptr null, ptr %39, align 8
  store i1 true, ptr %7, align 1
  br label %40

40:                                               ; preds = %38, %35, %32
  %41 = load i1, ptr %7, align 1
  ret i1 %41

42:                                               ; preds = %32
  unreachable
}