; Function Attrs: null_pointer_is_valid sspstrong uwtable
define internal noundef zeroext i1 @rsakeys_uat_fld_fileopen_chk_cb(ptr readnone captures(none) %0, ptr noundef %1, i32 %2, ptr readnone captures(none) %3, ptr readnone captures(none) %4, ptr noundef writeonly captures(none) initializes((0, 8)) %5) #0 {
  %7 = alloca %struct.stat, align 8
  %.not = icmp eq ptr %1, null
  br i1 %.not, label %14, label %8

8:                                                ; preds = %6
  %9 = load i8, ptr %1, align 1
  %.not10 = icmp eq i8 %9, 0
  br i1 %.not10, label %14, label %10

10:                                               ; preds = %8
  call void @llvm.lifetime.start.p0(i64 144, ptr nonnull %7) #16
  %11 = call i32 @stat(ptr noundef nonnull %1, ptr noundef nonnull %7) #16
  %.not11.not = icmp eq i32 %11, 0
  br i1 %.not11.not, label %16, label %12

12:                                               ; preds = %10
  %13 = tail call noalias ptr (ptr, ptr, ...) @wmem_strdup_printf(ptr noundef null, ptr noundef nonnull @.str.373, ptr noundef nonnull %1)
  store ptr %13, ptr %5, align 8
  call void @llvm.lifetime.end.p0(i64 144, ptr nonnull %7) #16
  br label %17

14:                                               ; preds = %8, %6
  %15 = tail call noalias ptr @g_strdup(ptr noundef nonnull @.str.374)
  store ptr %15, ptr %5, align 8
  br label %17

16:                                               ; preds = %10
  call void @llvm.lifetime.end.p0(i64 144, ptr nonnull %7) #16
  store ptr null, ptr %5, align 8
  br label %17

17:                                               ; preds = %12, %16, %14
  %.1 = phi i1 [ false, %12 ], [ true, %16 ], [ false, %14 ]
  ret i1 %.1
}